; Function Attrs: mustprogress nofree norecurse nosync nounwind willreturn memory(readwrite, inaccessiblemem: none) uwtable
define dso_local void @PyErr_Fetch(ptr noundef writeonly captures(none) initializes((0, 8)) %0, ptr noundef writeonly captures(none) initializes((0, 8)) %1, ptr noundef writeonly captures(none) initializes((0, 8)) %2) local_unnamed_addr #6 {
  %4 = tail call align 8 ptr @llvm.threadlocal.address.p0(ptr align 8 @_Py_tss_tstate)
  %5 = load ptr, ptr %4, align 8, !tbaa !25
  %6 = getelementptr inbounds nuw i8, ptr %5, i64 112
  %7 = load ptr, ptr %6, align 8, !tbaa !4
  store ptr null, ptr %6, align 8, !tbaa !4
  store ptr %7, ptr %1, align 8, !tbaa !24
  %8 = icmp eq ptr %7, null
  br i1 %8, label %9, label %10

9:                                                ; preds = %3
  store ptr null, ptr %0, align 8, !tbaa !24
  br label %_PyErr_Fetch.exit

10:                                               ; preds = %3
  %11 = getelementptr i8, ptr %7, i64 8
  %.val.i = load ptr, ptr %11, align 8, !tbaa !21
  %12 = load i32, ptr %.val.i, align 8, !tbaa !20
  %13 = icmp slt i32 %12, 0
  br i1 %13, label %_Py_NewRef.exit.i, label %14

14:                                               ; preds = %10
  %15 = add nuw i32 %12, 1
  store i32 %15, ptr %.val.i, align 8, !tbaa !20
  br label %_Py_NewRef.exit.i

_Py_NewRef.exit.i:                                ; preds = %14, %10
  store ptr %.val.i, ptr %0, align 8, !tbaa !24
  %16 = getelementptr inbounds nuw i8, ptr %7, i64 40
  %17 = load ptr, ptr %16, align 8, !tbaa !26
  %.not.i.i.i = icmp eq ptr %17, null
  br i1 %.not.i.i.i, label %_PyErr_Fetch.exit, label %18

18:                                               ; preds = %_Py_NewRef.exit.i
  %19 = load i32, ptr %17, align 8, !tbaa !20
  %20 = icmp slt i32 %19, 0
  br i1 %20, label %_PyErr_Fetch.exit, label %21

21:                                               ; preds = %18
  %22 = add nuw i32 %19, 1
  store i32 %22, ptr %17, align 8, !tbaa !20
  br label %_PyErr_Fetch.exit

_PyErr_Fetch.exit:                                ; preds = %9, %_Py_NewRef.exit.i, %18, %21
  %storemerge.i = phi ptr [ null, %9 ], [ null, %_Py_NewRef.exit.i ], [ %17, %18 ], [ %17, %21 ]
  store ptr %storemerge.i, ptr %2, align 8, !tbaa !24
  ret void
}